target datalayout = "e-m:e-p270:32:32-p271:32:32-p272:64:64-i64:64-i128:128-f80:128-n8:16:32:64-S128"
target triple = "x86_64-pc-linux-gnu"

@.str = private unnamed_addr constant [32 x i8] c"../openssl/crypto/x509/v3_utl.c\00", align 1

; Function Attrs: nounwind uwtable
define ptr @a2i_IPADDRESS_NC(ptr noundef %0) #0 {
  %2 = alloca ptr, align 8
  %3 = alloca ptr, align 8
  %4 = alloca ptr, align 8
  %5 = alloca [32 x i8], align 16
  %6 = alloca ptr, align 8
  %7 = alloca ptr, align 8
  %8 = alloca i32, align 4
  %9 = alloca i32, align 4
  %10 = alloca i32, align 4
  store ptr %0, ptr %3, align 8, !tbaa !3
  call void @llvm.lifetime.start.p0(i64 8, ptr %4) #8
  store ptr null, ptr %4, align 8, !tbaa !23
  call void @llvm.lifetime.start.p0(i64 32, ptr %5) #8
  call void @llvm.lifetime.start.p0(i64 8, ptr %6) #8
  store ptr null, ptr %6, align 8, !tbaa !3
  call void @llvm.lifetime.start.p0(i64 8, ptr %7) #8
  call void @llvm.lifetime.start.p0(i64 4, ptr %8) #8
  call void @llvm.lifetime.start.p0(i64 4, ptr %9) #8
  %11 = load ptr, ptr %3, align 8, !tbaa !3
  %12 = call ptr @strchr(ptr noundef %11, i32 noundef 47) #7
  store ptr %12, ptr %7, align 8, !tbaa !3
  %13 = load ptr, ptr %7, align 8, !tbaa !3
  %14 = icmp eq ptr %13, null
  br i1 %14, label %15, label %16

15:                                               ; preds = %1
  store ptr null, ptr %2, align 8
  store i32 1, ptr %10, align 4
  br label %72

16:                                               ; preds = %1
  %17 = load ptr, ptr %3, align 8, !tbaa !3
  %18 = call noalias ptr @CRYPTO_strdup(ptr noundef %17, ptr noundef @.str, i32 noundef 1134)
  store ptr %18, ptr %6, align 8, !tbaa !3
  %19 = load ptr, ptr %6, align 8, !tbaa !3
  %20 = icmp eq ptr %19, null
  br i1 %20, label %21, label %22

21:                                               ; preds = %16
  store ptr null, ptr %2, align 8
  store i32 1, ptr %10, align 4
  br label %72

22:                                               ; preds = %16
  %23 = load ptr, ptr %6, align 8, !tbaa !3
  %24 = load ptr, ptr %7, align 8, !tbaa !3
  %25 = load ptr, ptr %3, align 8, !tbaa !3
  %26 = ptrtoint ptr %24 to i64
  %27 = ptrtoint ptr %25 to i64
  %28 = sub i64 %26, %27
  %29 = getelementptr inbounds i8, ptr %23, i64 %28
  store ptr %29, ptr %7, align 8, !tbaa !3
  %30 = load ptr, ptr %7, align 8, !tbaa !3
  %31 = getelementptr inbounds nuw i8, ptr %30, i32 1
  store ptr %31, ptr %7, align 8, !tbaa !3
  store i8 0, ptr %30, align 1, !tbaa !27
  %32 = getelementptr inbounds [32 x i8], ptr %5, i64 0, i64 0
  %33 = load ptr, ptr %6, align 8, !tbaa !3
  %34 = call i32 @ossl_a2i_ipadd(ptr noundef %32, ptr noundef %33)
  store i32 %34, ptr %8, align 4, !tbaa !15
  %35 = load i32, ptr %8, align 4, !tbaa !15
  %36 = icmp ne i32 %35, 0
  br i1 %36, label %38, label %37

37:                                               ; preds = %22
  br label %69

38:                                               ; preds = %22
  %39 = getelementptr inbounds [32 x i8], ptr %5, i64 0, i64 0
  %40 = load i32, ptr %8, align 4, !tbaa !15
  %41 = sext i32 %40 to i64
  %42 = getelementptr inbounds i8, ptr %39, i64 %41
  %43 = load ptr, ptr %7, align 8, !tbaa !3
  %44 = call i32 @ossl_a2i_ipadd(ptr noundef %42, ptr noundef %43)
  store i32 %44, ptr %9, align 4, !tbaa !15
  %45 = load ptr, ptr %6, align 8, !tbaa !3
  call void @CRYPTO_free(ptr noundef %45, ptr noundef @.str, i32 noundef 1147)
  store ptr null, ptr %6, align 8, !tbaa !3
  %46 = load i32, ptr %9, align 4, !tbaa !15
  %47 = icmp ne i32 %46, 0
  br i1 %47, label %48, label %52

48:                                               ; preds = %38
  %49 = load i32, ptr %8, align 4, !tbaa !15
  %50 = load i32, ptr %9, align 4, !tbaa !15
  %51 = icmp ne i32 %49, %50
  br i1 %51, label %52, label %53

52:                                               ; preds = %48, %38
  br label %69

53:                                               ; preds = %48
  %54 = call ptr @ASN1_OCTET_STRING_new()
  store ptr %54, ptr %4, align 8, !tbaa !23
  %55 = load ptr, ptr %4, align 8, !tbaa !23
  %56 = icmp eq ptr %55, null
  br i1 %56, label %57, label %58

57:                                               ; preds = %53
  br label %69

58:                                               ; preds = %53
  %59 = load ptr, ptr %4, align 8, !tbaa !23
  %60 = getelementptr inbounds [32 x i8], ptr %5, i64 0, i64 0
  %61 = load i32, ptr %8, align 4, !tbaa !15
  %62 = load i32, ptr %9, align 4, !tbaa !15
  %63 = add nsw i32 %61, %62
  %64 = call i32 @ASN1_OCTET_STRING_set(ptr noundef %59, ptr noundef %60, i32 noundef %63)
  %65 = icmp ne i32 %64, 0
  br i1 %65, label %67, label %66

66:                                               ; preds = %58
  br label %69

67:                                               ; preds = %58
  %68 = load ptr, ptr %4, align 8, !tbaa !23
  store ptr %68, ptr %2, align 8
  store i32 1, ptr %10, align 4
  br label %72

69:                                               ; preds = %66, %57, %52, %37
  %70 = load ptr, ptr %6, align 8, !tbaa !3
  call void @CRYPTO_free(ptr noundef %70, ptr noundef @.str, i32 noundef 1162)
  %71 = load ptr, ptr %4, align 8, !tbaa !23
  call void @ASN1_OCTET_STRING_free(ptr noundef %71)
  store ptr null, ptr %2, align 8
  store i32 1, ptr %10, align 4
  br label %72

72:                                               ; preds = %69, %67, %21, %15
  call void @llvm.lifetime.end.p0(i64 4, ptr %9) #8
  call void @llvm.lifetime.end.p0(i64 4, ptr %8) #8
  call void @llvm.lifetime.end.p0(i64 8, ptr %7) #8
  call void @llvm.lifetime.end.p0(i64 8, ptr %6) #8
  call void @llvm.lifetime.end.p0(i64 32, ptr %5) #8
  call void @llvm.lifetime.end.p0(i64 8, ptr %4) #8
  %73 = load ptr, ptr %2, align 8
  ret ptr %73
}