; Function Attrs: nounwind uwtable
define ptr @a2i_IPADDRESS_NC(ptr noundef %0) local_unnamed_addr #0 {
  %2 = alloca [32 x i8], align 16
  call void @llvm.lifetime.start.p0(i64 32, ptr nonnull %2) #12
  %3 = tail call ptr @strchr(ptr noundef nonnull dereferenceable(1) %0, i32 noundef 47) #11
  %4 = icmp eq ptr %3, null
  br i1 %4, label %26, label %5

5:                                                ; preds = %1
  %6 = tail call noalias ptr @CRYPTO_strdup(ptr noundef nonnull %0, ptr noundef nonnull @.str, i32 noundef 1134) #12
  %7 = icmp eq ptr %6, null
  br i1 %7, label %26, label %8

8:                                                ; preds = %5
  %9 = ptrtoint ptr %3 to i64
  %10 = ptrtoint ptr %0 to i64
  %11 = sub i64 %9, %10
  %12 = getelementptr inbounds i8, ptr %6, i64 %11
  store i8 0, ptr %12, align 1, !tbaa !13
  %13 = call i32 @ossl_a2i_ipadd(ptr noundef nonnull %2, ptr noundef nonnull %6)
  %.not = icmp eq i32 %13, 0
  br i1 %.not, label %25, label %14

14:                                               ; preds = %8
  %15 = getelementptr inbounds nuw i8, ptr %12, i64 1
  %16 = zext nneg i32 %13 to i64
  %17 = getelementptr inbounds nuw i8, ptr %2, i64 %16
  %18 = call i32 @ossl_a2i_ipadd(ptr noundef nonnull %17, ptr noundef nonnull %15)
  tail call void @CRYPTO_free(ptr noundef nonnull %6, ptr noundef nonnull @.str, i32 noundef 1147) #12
  %.not31 = icmp eq i32 %13, %18
  br i1 %.not31, label %19, label %25

19:                                               ; preds = %14
  %20 = tail call ptr @ASN1_OCTET_STRING_new() #12
  %21 = icmp eq ptr %20, null
  br i1 %21, label %25, label %22

22:                                               ; preds = %19
  %23 = shl nuw nsw i32 %13, 1
  %24 = call i32 @ASN1_OCTET_STRING_set(ptr noundef nonnull %20, ptr noundef nonnull %2, i32 noundef %23) #12
  %.not32 = icmp eq i32 %24, 0
  br i1 %.not32, label %25, label %26

25:                                               ; preds = %22, %19, %14, %8
  %.024 = phi ptr [ null, %19 ], [ null, %22 ], [ null, %14 ], [ %6, %8 ]
  %.023 = phi ptr [ null, %19 ], [ %20, %22 ], [ null, %14 ], [ null, %8 ]
  call void @CRYPTO_free(ptr noundef %.024, ptr noundef nonnull @.str, i32 noundef 1162) #12
  call void @ASN1_OCTET_STRING_free(ptr noundef %.023) #12
  br label %26

26:                                               ; preds = %22, %5, %1, %25
  %.0 = phi ptr [ null, %25 ], [ null, %1 ], [ null, %5 ], [ %20, %22 ]
  call void @llvm.lifetime.end.p0(i64 32, ptr nonnull %2) #12
  ret ptr %.0
}